target datalayout = "e-m:e-p270:32:32-p271:32:32-p272:64:64-i64:64-i128:128-f80:128-n8:16:32:64-S128"
target triple = "x86_64-pc-linux-gnu"

%"class.std::filesystem::__cxx11::path" = type { %"class.std::__cxx11::basic_string", %"struct.std::filesystem::__cxx11::path::_List" }
%"class.std::__cxx11::basic_string" = type { %"struct.std::__cxx11::basic_string<char>::_Alloc_hider", i64, %union.anon.3 }
%"struct.std::__cxx11::basic_string<char>::_Alloc_hider" = type { ptr }
%union.anon.3 = type { i64, [8 x i8] }
%"struct.std::filesystem::__cxx11::path::_List" = type { %"class.std::unique_ptr" }
%"class.std::unique_ptr" = type { %"struct.std::__uniq_ptr_data" }
%"struct.std::__uniq_ptr_data" = type { %"class.std::__uniq_ptr_impl" }
%"class.std::__uniq_ptr_impl" = type { %"class.std::tuple" }
%"class.std::tuple" = type { %"struct.std::_Tuple_impl" }
%"struct.std::_Tuple_impl" = type { %"struct.std::_Head_base.5" }
%"struct.std::_Head_base.5" = type { ptr }

@.str.156 = private unnamed_addr constant [129 x i8] c"generated/home/dtcxzyw/WorkSpace/Projects/compilers/llvm-opt-benchmark/bench/gromacs/gromacs/src/gromacs/gmxana/gmx_make_edi.cpp\00", align 1
@.str.208 = private unnamed_addr constant [35 x i8] c"# NUMBER OF EIGENVECTORS + %s\0A %d\0A\00", align 1
@.str.209 = private unnamed_addr constant [10 x i8] c"%8d   %g\0A\00", align 1
@.str.210 = private unnamed_addr constant [83 x i8] c"Selected eigenvector %d is higher than maximum number %d of available eigenvectors\00", align 1
@.str.211 = private unnamed_addr constant [19 x i8] c"%8.5f %8.5f %8.5f\0A\00", align 1

; Function Attrs: mustprogress nounwind uwtable
define internal void @_ZL9copy_rvecPKfPf(ptr noundef %0, ptr noundef %1) #3 {
  %3 = alloca ptr, align 8
  %4 = alloca ptr, align 8
  store ptr %0, ptr %3, align 8
  store ptr %1, ptr %4, align 8
  %5 = load ptr, ptr %3, align 8
  %6 = getelementptr inbounds float, ptr %5, i64 0
  %7 = load float, ptr %6, align 4
  %8 = load ptr, ptr %4, align 8
  %9 = getelementptr inbounds float, ptr %8, i64 0
  store float %7, ptr %9, align 4
  %10 = load ptr, ptr %3, align 8
  %11 = getelementptr inbounds float, ptr %10, i64 1
  %12 = load float, ptr %11, align 4
  %13 = load ptr, ptr %4, align 8
  %14 = getelementptr inbounds float, ptr %13, i64 1
  store float %12, ptr %14, align 4
  %15 = load ptr, ptr %3, align 8
  %16 = getelementptr inbounds float, ptr %15, i64 2
  %17 = load float, ptr %16, align 4
  %18 = load ptr, ptr %4, align 8
  %19 = getelementptr inbounds float, ptr %18, i64 2
  store float %17, ptr %19, align 4
  ret void
}

; Function Attrs: mustprogress uwtable
define internal void @_ZL12write_eigvecP8_IO_FILEiPiPPA3_fiPKcPf(ptr noundef %0, i32 noundef %1, ptr noundef %2, ptr noundef %3, i32 noundef %4, ptr noundef %5, ptr noundef %6) #0 personality ptr @__gxx_personality_v0 {
  %8 = alloca ptr, align 8
  %9 = alloca i32, align 4
  %10 = alloca ptr, align 8
  %11 = alloca ptr, align 8
  %12 = alloca i32, align 4
  %13 = alloca ptr, align 8
  %14 = alloca ptr, align 8
  %15 = alloca i32, align 4
  %16 = alloca i32, align 4
  %17 = alloca [3 x float], align 4
  %18 = alloca %"class.std::filesystem::__cxx11::path", align 8
  %19 = alloca ptr, align 8
  %20 = alloca i32, align 4
  store ptr %0, ptr %8, align 8
  store i32 %1, ptr %9, align 4
  store ptr %2, ptr %10, align 8
  store ptr %3, ptr %11, align 8
  store i32 %4, ptr %12, align 4
  store ptr %5, ptr %13, align 8
  store ptr %6, ptr %14, align 8
  store i32 0, ptr %15, align 4
  br label %21

21:                                               ; preds = %29, %7
  %22 = load ptr, ptr %10, align 8
  %23 = load i32, ptr %15, align 4
  %24 = add nsw i32 %23, 1
  store i32 %24, ptr %15, align 4
  %25 = sext i32 %23 to i64
  %26 = getelementptr inbounds i32, ptr %22, i64 %25
  %27 = load i32, ptr %26, align 4
  %28 = icmp ne i32 %27, 0
  br i1 %28, label %29, label %30

29:                                               ; preds = %21
  br label %21, !llvm.loop !22

30:                                               ; preds = %21
  %31 = load ptr, ptr %8, align 8
  %32 = load ptr, ptr %13, align 8
  %33 = load i32, ptr %15, align 4
  %34 = sub nsw i32 %33, 1
  %35 = call i32 (ptr, ptr, ...) @fprintf(ptr noundef %31, ptr noundef @.str.208, ptr noundef %32, i32 noundef %34) #10
  store i32 0, ptr %15, align 4
  br label %36

36:                                               ; preds = %69, %30
  %37 = load ptr, ptr %10, align 8
  %38 = load i32, ptr %15, align 4
  %39 = sext i32 %38 to i64
  %40 = getelementptr inbounds i32, ptr %37, i64 %39
  %41 = load i32, ptr %40, align 4
  %42 = icmp ne i32 %41, 0
  br i1 %42, label %43, label %72

43:                                               ; preds = %36
  %44 = load ptr, ptr %14, align 8
  %45 = icmp ne ptr %44, null
  br i1 %45, label %46, label %60

46:                                               ; preds = %43
  %47 = load ptr, ptr %8, align 8
  %48 = load ptr, ptr %10, align 8
  %49 = load i32, ptr %15, align 4
  %50 = sext i32 %49 to i64
  %51 = getelementptr inbounds i32, ptr %48, i64 %50
  %52 = load i32, ptr %51, align 4
  %53 = load ptr, ptr %14, align 8
  %54 = load i32, ptr %15, align 4
  %55 = sext i32 %54 to i64
  %56 = getelementptr inbounds float, ptr %53, i64 %55
  %57 = load float, ptr %56, align 4
  %58 = fpext float %57 to double
  %59 = call i32 (ptr, ptr, ...) @fprintf(ptr noundef %47, ptr noundef @.str.209, i32 noundef %52, double noundef %58) #10
  br label %68

60:                                               ; preds = %43
  %61 = load ptr, ptr %8, align 8
  %62 = load ptr, ptr %10, align 8
  %63 = load i32, ptr %15, align 4
  %64 = sext i32 %63 to i64
  %65 = getelementptr inbounds i32, ptr %62, i64 %64
  %66 = load i32, ptr %65, align 4
  %67 = call i32 (ptr, ptr, ...) @fprintf(ptr noundef %61, ptr noundef @.str.209, i32 noundef %66, double noundef 1.000000e+00) #10
  br label %68

68:                                               ; preds = %60, %46
  br label %69

69:                                               ; preds = %68
  %70 = load i32, ptr %15, align 4
  %71 = add nsw i32 %70, 1
  store i32 %71, ptr %15, align 4
  br label %36, !llvm.loop !23

72:                                               ; preds = %36
  store i32 0, ptr %15, align 4
  br label %73

73:                                               ; preds = %135, %72
  %74 = load ptr, ptr %10, align 8
  %75 = load i32, ptr %15, align 4
  %76 = sext i32 %75 to i64
  %77 = getelementptr inbounds i32, ptr %74, i64 %76
  %78 = load i32, ptr %77, align 4
  %79 = icmp ne i32 %78, 0
  br i1 %79, label %80, label %138

80:                                               ; preds = %73
  store i32 0, ptr %16, align 4
  br label %81

81:                                               ; preds = %132, %80
  %82 = load i32, ptr %16, align 4
  %83 = load i32, ptr %9, align 4
  %84 = icmp slt i32 %82, %83
  br i1 %84, label %85, label %135

85:                                               ; preds = %81
  %86 = load ptr, ptr %10, align 8
  %87 = load i32, ptr %15, align 4
  %88 = sext i32 %87 to i64
  %89 = getelementptr inbounds i32, ptr %86, i64 %88
  %90 = load i32, ptr %89, align 4
  %91 = load i32, ptr %12, align 4
  %92 = icmp sgt i32 %90, %91
  br i1 %92, label %93, label %105

93:                                               ; preds = %85
  call void @_ZNSt10filesystem7__cxx114pathC2IA129_cS1_EERKT_NS1_6formatE(ptr noundef nonnull align 8 dereferenceable(40) %18, ptr noundef nonnull align 1 dereferenceable(129) @.str.156, i8 noundef zeroext 2)
  %94 = load ptr, ptr %10, align 8
  %95 = load i32, ptr %15, align 4
  %96 = sext i32 %95 to i64
  %97 = getelementptr inbounds i32, ptr %94, i64 %96
  %98 = load i32, ptr %97, align 4
  %99 = load i32, ptr %12, align 4
  invoke void (i32, ptr, i32, ptr, ...) @_Z9gmx_fataliRKNSt10filesystem7__cxx114pathEiPKcz(i32 noundef 0, ptr noundef nonnull align 8 dereferenceable(40) %18, i32 noundef 372, ptr noundef @.str.210, i32 noundef %98, i32 noundef %99) #11
          to label %100 unwind label %101

100:                                              ; preds = %93
  unreachable

101:                                              ; preds = %93
  %102 = landingpad { ptr, i32 }
          cleanup
  %103 = extractvalue { ptr, i32 } %102, 0
  store ptr %103, ptr %19, align 8
  %104 = extractvalue { ptr, i32 } %102, 1
  store i32 %104, ptr %20, align 4
  call void @_ZNSt10filesystem7__cxx114pathD2Ev(ptr noundef nonnull align 8 dereferenceable(40) %18) #10
  br label %139

105:                                              ; preds = %85
  %106 = load ptr, ptr %11, align 8
  %107 = load ptr, ptr %10, align 8
  %108 = load i32, ptr %15, align 4
  %109 = sext i32 %108 to i64
  %110 = getelementptr inbounds i32, ptr %107, i64 %109
  %111 = load i32, ptr %110, align 4
  %112 = sub nsw i32 %111, 1
  %113 = sext i32 %112 to i64
  %114 = getelementptr inbounds ptr, ptr %106, i64 %113
  %115 = load ptr, ptr %114, align 8
  %116 = load i32, ptr %16, align 4
  %117 = sext i32 %116 to i64
  %118 = getelementptr inbounds [3 x float], ptr %115, i64 %117
  %119 = getelementptr inbounds [3 x float], ptr %118, i64 0, i64 0
  %120 = getelementptr inbounds [3 x float], ptr %17, i64 0, i64 0
  call void @_ZL9copy_rvecPKfPf(ptr noundef %119, ptr noundef %120)
  %121 = load ptr, ptr %8, align 8
  %122 = getelementptr inbounds [3 x float], ptr %17, i64 0, i64 0
  %123 = load float, ptr %122, align 4
  %124 = fpext float %123 to double
  %125 = getelementptr inbounds [3 x float], ptr %17, i64 0, i64 1
  %126 = load float, ptr %125, align 4
  %127 = fpext float %126 to double
  %128 = getelementptr inbounds [3 x float], ptr %17, i64 0, i64 2
  %129 = load float, ptr %128, align 4
  %130 = fpext float %129 to double
  %131 = call i32 (ptr, ptr, ...) @fprintf(ptr noundef %121, ptr noundef @.str.211, double noundef %124, double noundef %127, double noundef %130) #10
  br label %132

132:                                              ; preds = %105
  %133 = load i32, ptr %16, align 4
  %134 = add nsw i32 %133, 1
  store i32 %134, ptr %16, align 4
  br label %81, !llvm.loop !24

135:                                              ; preds = %81
  %136 = load i32, ptr %15, align 4
  %137 = add nsw i32 %136, 1
  store i32 %137, ptr %15, align 4
  br label %73, !llvm.loop !25

138:                                              ; preds = %73
  ret void

139:                                              ; preds = %101
  %140 = load ptr, ptr %19, align 8
  %141 = load i32, ptr %20, align 4
  %142 = insertvalue { ptr, i32 } poison, ptr %140, 0
  %143 = insertvalue { ptr, i32 } %142, i32 %141, 1
  resume { ptr, i32 } %143
}