; Function Attrs: mustprogress uwtable
define internal fastcc void @_ZL12write_eigvecP8_IO_FILEiPiPPA3_fiPKcPf(ptr nocapture noundef %0, i32 noundef %1, ptr nocapture noundef readonly %2, ptr nocapture noundef readonly %3, i32 noundef %4, ptr noundef %5, ptr noundef readonly %6) unnamed_addr #0 personality ptr @__gxx_personality_v0 {
  %8 = alloca %"class.std::filesystem::__cxx11::path", align 8
  br label %9

9:                                                ; preds = %9, %7
  %indvars.iv = phi i64 [ %indvars.iv.next, %9 ], [ 0, %7 ]
  %indvars.iv.next = add nuw nsw i64 %indvars.iv, 1
  %10 = getelementptr inbounds i32, ptr %2, i64 %indvars.iv
  %11 = load i32, ptr %10, align 4
  %.not = icmp eq i32 %11, 0
  br i1 %.not, label %12, label %9, !llvm.loop !23

12:                                               ; preds = %9
  %13 = trunc nuw nsw i64 %indvars.iv to i32
  %14 = tail call i32 (ptr, ptr, ...) @fprintf(ptr noundef %0, ptr noundef nonnull @.str.208, ptr noundef %5, i32 noundef %13) #15
  %15 = load i32, ptr %2, align 4
  %.not4045 = icmp eq i32 %15, 0
  br i1 %.not4045, label %._crit_edge51, label %.lr.ph

.lr.ph:                                           ; preds = %12
  %.not42 = icmp eq ptr %6, null
  br i1 %.not42, label %.lr.ph.split.us, label %.lr.ph.split

.lr.ph.split.us:                                  ; preds = %.lr.ph, %.lr.ph.split.us
  %indvars.iv59 = phi i64 [ %indvars.iv.next60, %.lr.ph.split.us ], [ 0, %.lr.ph ]
  %16 = phi i32 [ %19, %.lr.ph.split.us ], [ %15, %.lr.ph ]
  %17 = tail call i32 (ptr, ptr, ...) @fprintf(ptr noundef %0, ptr noundef nonnull @.str.209, i32 noundef %16, double noundef 1.000000e+00) #15
  %indvars.iv.next60 = add nuw nsw i64 %indvars.iv59, 1
  %18 = getelementptr inbounds i32, ptr %2, i64 %indvars.iv.next60
  %19 = load i32, ptr %18, align 4
  %.not40.us = icmp eq i32 %19, 0
  br i1 %.not40.us, label %.preheader43, label %.lr.ph.split.us, !llvm.loop !24

.preheader43:                                     ; preds = %.lr.ph.split, %.lr.ph.split.us
  %.pr = load i32, ptr %2, align 4
  %.not4149 = icmp eq i32 %.pr, 0
  br i1 %.not4149, label %._crit_edge51, label %.preheader.lr.ph

.preheader.lr.ph:                                 ; preds = %.preheader43
  %invariant.gep = getelementptr i8, ptr %3, i64 -8
  %20 = icmp sgt i32 %1, 0
  br i1 %20, label %.preheader.us.preheader, label %._crit_edge51

.preheader.us.preheader:                          ; preds = %.preheader.lr.ph
  %wide.trip.count = zext nneg i32 %1 to i64
  br label %.preheader.us

.preheader.us:                                    ; preds = %.preheader.us.preheader, %._crit_edge.us
  %indvars.iv68 = phi i64 [ 0, %.preheader.us.preheader ], [ %indvars.iv.next69, %._crit_edge.us ]
  %21 = getelementptr inbounds i32, ptr %2, i64 %indvars.iv68
  br label %22

22:                                               ; preds = %.preheader.us, %25
  %indvars.iv65 = phi i64 [ 0, %.preheader.us ], [ %indvars.iv.next66, %25 ]
  %23 = load i32, ptr %21, align 4
  %24 = icmp sgt i32 %23, %4
  br i1 %24, label %.split.us, label %25

25:                                               ; preds = %22
  %26 = sext i32 %23 to i64
  %gep.us = getelementptr ptr, ptr %invariant.gep, i64 %26
  %27 = load ptr, ptr %gep.us, align 8
  %28 = getelementptr inbounds [3 x float], ptr %27, i64 %indvars.iv65
  %29 = load float, ptr %28, align 4
  %30 = getelementptr inbounds i8, ptr %28, i64 4
  %31 = load float, ptr %30, align 4
  %32 = getelementptr inbounds i8, ptr %28, i64 8
  %33 = load float, ptr %32, align 4
  %34 = fpext float %29 to double
  %35 = fpext float %31 to double
  %36 = fpext float %33 to double
  %37 = tail call i32 (ptr, ptr, ...) @fprintf(ptr noundef %0, ptr noundef nonnull @.str.211, double noundef %34, double noundef %35, double noundef %36) #15
  %indvars.iv.next66 = add nuw nsw i64 %indvars.iv65, 1
  %exitcond.not = icmp eq i64 %indvars.iv.next66, %wide.trip.count
  br i1 %exitcond.not, label %._crit_edge.us, label %22, !llvm.loop !25

._crit_edge.us:                                   ; preds = %25
  %indvars.iv.next69 = add nuw nsw i64 %indvars.iv68, 1
  %38 = getelementptr inbounds i32, ptr %2, i64 %indvars.iv.next69
  %39 = load i32, ptr %38, align 4
  %.not41.us = icmp eq i32 %39, 0
  br i1 %.not41.us, label %._crit_edge51, label %.preheader.us, !llvm.loop !26

.lr.ph.split:                                     ; preds = %.lr.ph, %.lr.ph.split
  %indvars.iv56 = phi i64 [ %indvars.iv.next57, %.lr.ph.split ], [ 0, %.lr.ph ]
  %40 = phi i32 [ %46, %.lr.ph.split ], [ %15, %.lr.ph ]
  %41 = getelementptr inbounds float, ptr %6, i64 %indvars.iv56
  %42 = load float, ptr %41, align 4
  %43 = fpext float %42 to double
  %44 = tail call i32 (ptr, ptr, ...) @fprintf(ptr noundef %0, ptr noundef nonnull @.str.209, i32 noundef %40, double noundef %43) #15
  %indvars.iv.next57 = add nuw nsw i64 %indvars.iv56, 1
  %45 = getelementptr inbounds i32, ptr %2, i64 %indvars.iv.next57
  %46 = load i32, ptr %45, align 4
  %.not40 = icmp eq i32 %46, 0
  br i1 %.not40, label %.preheader43, label %.lr.ph.split, !llvm.loop !24

.split.us:                                        ; preds = %22
  call void @_ZNSt10filesystem7__cxx114pathC2IA129_cS1_EERKT_NS1_6formatE(ptr noundef nonnull align 8 dereferenceable(40) %8, ptr noundef nonnull align 1 dereferenceable(129) @.str.156, i8 noundef zeroext 2)
  %47 = load i32, ptr %21, align 4
  invoke void (i32, ptr, i32, ptr, ...) @_Z9gmx_fataliRKNSt10filesystem7__cxx114pathEiPKcz(i32 noundef 0, ptr noundef nonnull align 8 dereferenceable(40) %8, i32 noundef 372, ptr noundef nonnull @.str.210, i32 noundef %47, i32 noundef %4) #16
          to label %48 unwind label %49

48:                                               ; preds = %.split.us
  unreachable

49:                                               ; preds = %.split.us
  %50 = landingpad { ptr, i32 }
          cleanup
  call void @_ZNSt10filesystem7__cxx114pathD2Ev(ptr noundef nonnull align 8 dereferenceable(40) %8) #15
  resume { ptr, i32 } %50

._crit_edge51:                                    ; preds = %._crit_edge.us, %12, %.preheader.lr.ph, %.preheader43
  ret void
}